target datalayout = "e-m:e-p270:32:32-p271:32:32-p272:64:64-i64:64-i128:128-f80:128-n8:16:32:64-S128"
target triple = "x86_64-pc-linux-gnu"

%"class.base::trace_event::AllocationContextTracker" = type <{ %"class.std::vector", ptr, %"class.std::vector.0", i32, [4 x i8] }>
%"class.std::vector" = type { %"struct.std::_Vector_base" }
%"struct.std::_Vector_base" = type { %"struct.std::_Vector_base<base::trace_event::AllocationContextTracker::PseudoStackFrame, std::allocator<base::trace_event::AllocationContextTracker::PseudoStackFrame>>::_Vector_impl" }
%"struct.std::_Vector_base<base::trace_event::AllocationContextTracker::PseudoStackFrame, std::allocator<base::trace_event::AllocationContextTracker::PseudoStackFrame>>::_Vector_impl" = type { %"struct.std::_Vector_base<base::trace_event::AllocationContextTracker::PseudoStackFrame, std::allocator<base::trace_event::AllocationContextTracker::PseudoStackFrame>>::_Vector_impl_data" }
%"struct.std::_Vector_base<base::trace_event::AllocationContextTracker::PseudoStackFrame, std::allocator<base::trace_event::AllocationContextTracker::PseudoStackFrame>>::_Vector_impl_data" = type { ptr, ptr, ptr }
%"class.std::vector.0" = type { %"struct.std::_Vector_base.1" }
%"struct.std::_Vector_base.1" = type { %"struct.std::_Vector_base<const char *, std::allocator<const char *>>::_Vector_impl" }
%"struct.std::_Vector_base<const char *, std::allocator<const char *>>::_Vector_impl" = type { %"struct.std::_Vector_base<const char *, std::allocator<const char *>>::_Vector_impl_data" }
%"struct.std::_Vector_base<const char *, std::allocator<const char *>>::_Vector_impl_data" = type { ptr, ptr, ptr }
%"struct.base::trace_event::AllocationContextTracker::PseudoStackFrame" = type { ptr, ptr }
%"class.__gnu_cxx::__normal_iterator.8" = type { ptr }

; Function Attrs: mustprogress nounwind uwtable
define linkonce_odr void @_ZNSt15__new_allocatorIN4base11trace_event24AllocationContextTracker16PseudoStackFrameEE7destroyIS3_EEvPT_(ptr noundef nonnull align 1 dereferenceable(1) %0, ptr noundef %1) #5 comdat align 2 {
  %3 = alloca ptr, align 8
  %4 = alloca ptr, align 8
  store ptr %0, ptr %3, align 8, !tbaa !87
  store ptr %1, ptr %4, align 8, !tbaa !29
  ret void
}

; Function Attrs: mustprogress nounwind uwtable
define linkonce_odr noundef nonnull align 8 dereferenceable(8) ptr @_ZNK9__gnu_cxx17__normal_iteratorIPKN4base11trace_event24AllocationContextTracker16PseudoStackFrameESt6vectorIS4_SaIS4_EEE4baseEv(ptr noundef nonnull align 8 dereferenceable(8) %0) #5 comdat align 2 {
  %2 = alloca ptr, align 8
  store ptr %0, ptr %2, align 8, !tbaa !120
  %3 = load ptr, ptr %2, align 8
  %4 = getelementptr inbounds nuw %"class.__gnu_cxx::__normal_iterator.8", ptr %3, i32 0, i32 0
  ret ptr %4
}

; Function Attrs: mustprogress nounwind uwtable
define linkonce_odr void @_ZN9__gnu_cxx17__normal_iteratorIPKN4base11trace_event24AllocationContextTracker16PseudoStackFrameESt6vectorIS4_SaIS4_EEEC2ERKS6_(ptr noundef nonnull align 8 dereferenceable(8) %0, ptr noundef nonnull align 8 dereferenceable(8) %1) unnamed_addr #5 comdat align 2 {
  %3 = alloca ptr, align 8
  %4 = alloca ptr, align 8
  store ptr %0, ptr %3, align 8, !tbaa !120
  store ptr %1, ptr %4, align 8, !tbaa !122
  %5 = load ptr, ptr %3, align 8
  %6 = getelementptr inbounds nuw %"class.__gnu_cxx::__normal_iterator.8", ptr %5, i32 0, i32 0
  %7 = load ptr, ptr %4, align 8, !tbaa !122
  %8 = load ptr, ptr %7, align 8, !tbaa !29
  store ptr %8, ptr %6, align 8, !tbaa !124
  ret void
}

; Function Attrs: mustprogress nounwind uwtable
define linkonce_odr void @_ZNSt16allocator_traitsISaIN4base11trace_event24AllocationContextTracker16PseudoStackFrameEEE7destroyIS3_EEvRS4_PT_(ptr noundef nonnull align 1 dereferenceable(1) %0, ptr noundef %1) #5 comdat align 2 {
  %3 = alloca ptr, align 8
  %4 = alloca ptr, align 8
  store ptr %0, ptr %3, align 8, !tbaa !83
  store ptr %1, ptr %4, align 8, !tbaa !29
  %5 = load ptr, ptr %3, align 8, !tbaa !83
  %6 = load ptr, ptr %4, align 8, !tbaa !29
  call void @_ZNSt15__new_allocatorIN4base11trace_event24AllocationContextTracker16PseudoStackFrameEE7destroyIS3_EEvPT_(ptr noundef nonnull align 1 dereferenceable(1) %5, ptr noundef %6) #14
  ret void
}

; Function Attrs: inlinehint mustprogress nounwind uwtable
define linkonce_odr noundef zeroext i1 @_ZN9__gnu_cxxeqIPKN4base11trace_event24AllocationContextTracker16PseudoStackFrameESt6vectorIS4_SaIS4_EEEEbRKNS_17__normal_iteratorIT_T0_EESF_(ptr noundef nonnull align 8 dereferenceable(8) %0, ptr noundef nonnull align 8 dereferenceable(8) %1) #7 comdat {
  %3 = alloca ptr, align 8
  %4 = alloca ptr, align 8
  store ptr %0, ptr %3, align 8, !tbaa !120
  store ptr %1, ptr %4, align 8, !tbaa !120
  %5 = load ptr, ptr %3, align 8, !tbaa !120
  %6 = call noundef nonnull align 8 dereferenceable(8) ptr @_ZNK9__gnu_cxx17__normal_iteratorIPKN4base11trace_event24AllocationContextTracker16PseudoStackFrameESt6vectorIS4_SaIS4_EEE4baseEv(ptr noundef nonnull align 8 dereferenceable(8) %5) #14
  %7 = load ptr, ptr %6, align 8, !tbaa !29
  %8 = load ptr, ptr %4, align 8, !tbaa !120
  %9 = call noundef nonnull align 8 dereferenceable(8) ptr @_ZNK9__gnu_cxx17__normal_iteratorIPKN4base11trace_event24AllocationContextTracker16PseudoStackFrameESt6vectorIS4_SaIS4_EEE4baseEv(ptr noundef nonnull align 8 dereferenceable(8) %8) #14
  %10 = load ptr, ptr %9, align 8, !tbaa !29
  %11 = icmp eq ptr %7, %10
  ret i1 %11
}

; Function Attrs: mustprogress nounwind uwtable
define linkonce_odr ptr @_ZNKSt6vectorIN4base11trace_event24AllocationContextTracker16PseudoStackFrameESaIS3_EE3endEv(ptr noundef nonnull align 8 dereferenceable(24) %0) #5 comdat align 2 {
  %2 = alloca %"class.__gnu_cxx::__normal_iterator.8", align 8
  %3 = alloca ptr, align 8
  store ptr %0, ptr %3, align 8, !tbaa !23
  %4 = load ptr, ptr %3, align 8
  %5 = getelementptr inbounds nuw %"struct.std::_Vector_base", ptr %4, i32 0, i32 0
  %6 = getelementptr inbounds nuw %"struct.std::_Vector_base<base::trace_event::AllocationContextTracker::PseudoStackFrame, std::allocator<base::trace_event::AllocationContextTracker::PseudoStackFrame>>::_Vector_impl_data", ptr %5, i32 0, i32 1
  call void @_ZN9__gnu_cxx17__normal_iteratorIPKN4base11trace_event24AllocationContextTracker16PseudoStackFrameESt6vectorIS4_SaIS4_EEEC2ERKS6_(ptr noundef nonnull align 8 dereferenceable(8) %2, ptr noundef nonnull align 8 dereferenceable(8) %6) #14
  %7 = getelementptr inbounds nuw %"class.__gnu_cxx::__normal_iterator.8", ptr %2, i32 0, i32 0
  %8 = load ptr, ptr %7, align 8
  ret ptr %8
}

; Function Attrs: mustprogress nounwind uwtable
define linkonce_odr ptr @_ZNKSt6vectorIN4base11trace_event24AllocationContextTracker16PseudoStackFrameESaIS3_EE5beginEv(ptr noundef nonnull align 8 dereferenceable(24) %0) #5 comdat align 2 {
  %2 = alloca %"class.__gnu_cxx::__normal_iterator.8", align 8
  %3 = alloca ptr, align 8
  store ptr %0, ptr %3, align 8, !tbaa !23
  %4 = load ptr, ptr %3, align 8
  %5 = getelementptr inbounds nuw %"struct.std::_Vector_base", ptr %4, i32 0, i32 0
  %6 = getelementptr inbounds nuw %"struct.std::_Vector_base<base::trace_event::AllocationContextTracker::PseudoStackFrame, std::allocator<base::trace_event::AllocationContextTracker::PseudoStackFrame>>::_Vector_impl_data", ptr %5, i32 0, i32 0
  call void @_ZN9__gnu_cxx17__normal_iteratorIPKN4base11trace_event24AllocationContextTracker16PseudoStackFrameESt6vectorIS4_SaIS4_EEEC2ERKS6_(ptr noundef nonnull align 8 dereferenceable(8) %2, ptr noundef nonnull align 8 dereferenceable(8) %6) #14
  %7 = getelementptr inbounds nuw %"class.__gnu_cxx::__normal_iterator.8", ptr %2, i32 0, i32 0
  %8 = load ptr, ptr %7, align 8
  ret ptr %8
}

; Function Attrs: mustprogress nounwind uwtable
define linkonce_odr void @_ZNSt6vectorIN4base11trace_event24AllocationContextTracker16PseudoStackFrameESaIS3_EE8pop_backEv(ptr noundef nonnull align 8 dereferenceable(24) %0) #5 comdat align 2 {
  %2 = alloca ptr, align 8
  store ptr %0, ptr %2, align 8, !tbaa !23
  %3 = load ptr, ptr %2, align 8
  %4 = getelementptr inbounds nuw %"struct.std::_Vector_base", ptr %3, i32 0, i32 0
  %5 = getelementptr inbounds nuw %"struct.std::_Vector_base<base::trace_event::AllocationContextTracker::PseudoStackFrame, std::allocator<base::trace_event::AllocationContextTracker::PseudoStackFrame>>::_Vector_impl_data", ptr %4, i32 0, i32 1
  %6 = load ptr, ptr %5, align 8, !tbaa !31
  %7 = getelementptr inbounds %"struct.base::trace_event::AllocationContextTracker::PseudoStackFrame", ptr %6, i32 -1
  store ptr %7, ptr %5, align 8, !tbaa !31
  %8 = getelementptr inbounds nuw %"struct.std::_Vector_base", ptr %3, i32 0, i32 0
  %9 = getelementptr inbounds nuw %"struct.std::_Vector_base", ptr %3, i32 0, i32 0
  %10 = getelementptr inbounds nuw %"struct.std::_Vector_base<base::trace_event::AllocationContextTracker::PseudoStackFrame, std::allocator<base::trace_event::AllocationContextTracker::PseudoStackFrame>>::_Vector_impl_data", ptr %9, i32 0, i32 1
  %11 = load ptr, ptr %10, align 8, !tbaa !31
  call void @_ZNSt16allocator_traitsISaIN4base11trace_event24AllocationContextTracker16PseudoStackFrameEEE7destroyIS3_EEvRS4_PT_(ptr noundef nonnull align 1 dereferenceable(1) %8, ptr noundef %11) #14
  ret void
}

; Function Attrs: mustprogress nounwind uwtable
define linkonce_odr noundef zeroext i1 @_ZNKSt6vectorIN4base11trace_event24AllocationContextTracker16PseudoStackFrameESaIS3_EE5emptyEv(ptr noundef nonnull align 8 dereferenceable(24) %0) #5 comdat align 2 {
  %2 = alloca ptr, align 8
  %3 = alloca %"class.__gnu_cxx::__normal_iterator.8", align 8
  %4 = alloca %"class.__gnu_cxx::__normal_iterator.8", align 8
  store ptr %0, ptr %2, align 8, !tbaa !23
  %5 = load ptr, ptr %2, align 8
  call void @llvm.lifetime.start.p0(i64 8, ptr %3) #14
  %6 = call ptr @_ZNKSt6vectorIN4base11trace_event24AllocationContextTracker16PseudoStackFrameESaIS3_EE5beginEv(ptr noundef nonnull align 8 dereferenceable(24) %5) #14
  %7 = getelementptr inbounds nuw %"class.__gnu_cxx::__normal_iterator.8", ptr %3, i32 0, i32 0
  store ptr %6, ptr %7, align 8
  call void @llvm.lifetime.start.p0(i64 8, ptr %4) #14
  %8 = call ptr @_ZNKSt6vectorIN4base11trace_event24AllocationContextTracker16PseudoStackFrameESaIS3_EE3endEv(ptr noundef nonnull align 8 dereferenceable(24) %5) #14
  %9 = getelementptr inbounds nuw %"class.__gnu_cxx::__normal_iterator.8", ptr %4, i32 0, i32 0
  store ptr %8, ptr %9, align 8
  %10 = call noundef zeroext i1 @_ZN9__gnu_cxxeqIPKN4base11trace_event24AllocationContextTracker16PseudoStackFrameESt6vectorIS4_SaIS4_EEEEbRKNS_17__normal_iteratorIT_T0_EESF_(ptr noundef nonnull align 8 dereferenceable(8) %3, ptr noundef nonnull align 8 dereferenceable(8) %4) #14
  call void @llvm.lifetime.end.p0(i64 8, ptr %4) #14
  call void @llvm.lifetime.end.p0(i64 8, ptr %3) #14
  ret i1 %10
}

; Function Attrs: mustprogress nounwind uwtable
define void @_ZN4base11trace_event24AllocationContextTracker19PopPseudoStackFrameENS1_16PseudoStackFrameE(ptr noundef nonnull align 8 dereferenceable(60) %0, ptr %1, ptr %2) #5 align 2 {
  %4 = alloca %"struct.base::trace_event::AllocationContextTracker::PseudoStackFrame", align 8
  %5 = alloca ptr, align 8
  %6 = getelementptr inbounds nuw { ptr, ptr }, ptr %4, i32 0, i32 0
  store ptr %1, ptr %6, align 8
  %7 = getelementptr inbounds nuw { ptr, ptr }, ptr %4, i32 0, i32 1
  store ptr %2, ptr %7, align 8
  store ptr %0, ptr %5, align 8, !tbaa !3
  %8 = load ptr, ptr %5, align 8
  %9 = getelementptr inbounds nuw %"class.base::trace_event::AllocationContextTracker", ptr %8, i32 0, i32 0
  %10 = call noundef zeroext i1 @_ZNKSt6vectorIN4base11trace_event24AllocationContextTracker16PseudoStackFrameESaIS3_EE5emptyEv(ptr noundef nonnull align 8 dereferenceable(24) %9) #14
  br i1 %10, label %11, label %12

11:                                               ; preds = %3
  br label %14

12:                                               ; preds = %3
  %13 = getelementptr inbounds nuw %"class.base::trace_event::AllocationContextTracker", ptr %8, i32 0, i32 0
  call void @_ZNSt6vectorIN4base11trace_event24AllocationContextTracker16PseudoStackFrameESaIS3_EE8pop_backEv(ptr noundef nonnull align 8 dereferenceable(24) %13) #14
  br label %14

14:                                               ; preds = %12, %11
  ret void
}