; Function Attrs: mustprogress nofree norecurse nosync nounwind willreturn memory(argmem: readwrite) uwtable
define void @_ZN4base11trace_event24AllocationContextTracker19PopPseudoStackFrameENS1_16PseudoStackFrameE(ptr noundef nonnull align 8 captures(none) dereferenceable(60) %0, ptr readnone captures(none) %1, ptr readnone captures(none) %2) local_unnamed_addr #6 align 2 {
  %4 = load ptr, ptr %0, align 8, !tbaa !27
  %5 = getelementptr inbounds nuw i8, ptr %0, i64 8
  %6 = load ptr, ptr %5, align 8, !tbaa !27
  %7 = icmp eq ptr %4, %6
  br i1 %7, label %10, label %8

8:                                                ; preds = %3
  %9 = getelementptr inbounds i8, ptr %6, i64 -16
  store ptr %9, ptr %5, align 8, !tbaa !9
  br label %10

10:                                               ; preds = %3, %8
  ret void
}